; Function Attrs: nounwind uwtable
define void @Ifd_ManOperSuper_rec(ptr noundef readonly captures(none) %0, i32 noundef %1, i32 noundef %2, ptr noundef captures(none) %3) local_unnamed_addr #5 {
  %5 = and i32 %1, 1
  %.not19 = icmp eq i32 %5, 0
  br i1 %.not19, label %.lr.ph.preheader, label %._crit_edge

.lr.ph.preheader:                                 ; preds = %4
  %.val18 = load ptr, ptr %0, align 8, !tbaa !17
  %6 = ashr exact i32 %1, 1
  %7 = sext i32 %6 to i64
  %8 = getelementptr inbounds %struct.Ifd_Obj_t_, ptr %.val18, i64 %7
  %9 = load i32, ptr %8, align 4
  %10 = lshr i32 %9, 29
  %11 = and i32 %10, 3
  %.not1422 = icmp eq i32 %11, %2
  br i1 %.not1422, label %tailrecurse, label %._crit_edge

.lr.ph:                                           ; preds = %tailrecurse
  %.val = load ptr, ptr %0, align 8, !tbaa !17
  %12 = ashr exact i32 %53, 1
  %13 = sext i32 %12 to i64
  %14 = getelementptr inbounds %struct.Ifd_Obj_t_, ptr %.val, i64 %13
  %15 = load i32, ptr %14, align 4
  %16 = lshr i32 %15, 29
  %17 = and i32 %16, 3
  %.not14 = icmp eq i32 %17, %2
  br i1 %.not14, label %tailrecurse, label %._crit_edge

._crit_edge:                                      ; preds = %.lr.ph, %tailrecurse, %.lr.ph.preheader, %4
  %.tr15.lcssa = phi i32 [ %1, %4 ], [ %1, %.lr.ph.preheader ], [ %53, %tailrecurse ], [ %53, %.lr.ph ]
  %18 = getelementptr inbounds nuw i8, ptr %3, i64 4
  %19 = load i32, ptr %18, align 4, !tbaa !18
  %20 = load i32, ptr %3, align 8, !tbaa !21
  %21 = icmp eq i32 %19, %20
  br i1 %21, label %22, label %.Vec_IntGrow.exit10_crit_edge.i

.Vec_IntGrow.exit10_crit_edge.i:                  ; preds = %._crit_edge
  %.phi.trans.insert.i = getelementptr inbounds nuw i8, ptr %3, i64 8
  %.pre.i = load ptr, ptr %.phi.trans.insert.i, align 8, !tbaa !22
  br label %Vec_IntPush.exit

22:                                               ; preds = %._crit_edge
  %23 = icmp slt i32 %19, 16
  br i1 %23, label %24, label %32

24:                                               ; preds = %22
  %25 = getelementptr inbounds nuw i8, ptr %3, i64 8
  %26 = load ptr, ptr %25, align 8, !tbaa !22
  %.not9.i.i = icmp eq ptr %26, null
  br i1 %.not9.i.i, label %29, label %27

27:                                               ; preds = %24
  %28 = tail call dereferenceable_or_null(64) ptr @realloc(ptr noundef nonnull %26, i64 noundef 64) #29
  br label %Vec_IntGrow.exit.i

29:                                               ; preds = %24
  %30 = tail call noalias dereferenceable_or_null(64) ptr @malloc(i64 noundef 64) #27
  br label %Vec_IntGrow.exit.i

Vec_IntGrow.exit.i:                               ; preds = %29, %27
  %31 = phi ptr [ %28, %27 ], [ %30, %29 ]
  store ptr %31, ptr %25, align 8, !tbaa !22
  store i32 16, ptr %3, align 8, !tbaa !21
  br label %Vec_IntPush.exit

32:                                               ; preds = %22
  %33 = shl nuw nsw i32 %19, 1
  %34 = getelementptr inbounds nuw i8, ptr %3, i64 8
  %35 = load ptr, ptr %34, align 8, !tbaa !22
  %.not9.i9.i = icmp eq ptr %35, null
  %36 = zext nneg i32 %33 to i64
  %37 = shl nuw nsw i64 %36, 2
  br i1 %.not9.i9.i, label %40, label %38

38:                                               ; preds = %32
  %39 = tail call ptr @realloc(ptr noundef nonnull %35, i64 noundef %37) #29
  br label %42

40:                                               ; preds = %32
  %41 = tail call noalias ptr @malloc(i64 noundef %37) #27
  br label %42

42:                                               ; preds = %40, %38
  %43 = phi ptr [ %39, %38 ], [ %41, %40 ]
  store ptr %43, ptr %34, align 8, !tbaa !22
  store i32 %33, ptr %3, align 8, !tbaa !21
  br label %Vec_IntPush.exit

Vec_IntPush.exit:                                 ; preds = %.Vec_IntGrow.exit10_crit_edge.i, %Vec_IntGrow.exit.i, %42
  %44 = phi ptr [ %.pre.i, %.Vec_IntGrow.exit10_crit_edge.i ], [ %43, %42 ], [ %31, %Vec_IntGrow.exit.i ]
  %45 = load i32, ptr %18, align 4, !tbaa !18
  %46 = add nsw i32 %45, 1
  store i32 %46, ptr %18, align 4, !tbaa !18
  %47 = sext i32 %45 to i64
  %48 = getelementptr inbounds i32, ptr %44, i64 %47
  store i32 %.tr15.lcssa, ptr %48, align 4, !tbaa !37
  ret void

tailrecurse:                                      ; preds = %.lr.ph.preheader, %.lr.ph
  %49 = phi ptr [ %14, %.lr.ph ], [ %8, %.lr.ph.preheader ]
  %50 = getelementptr inbounds nuw i8, ptr %49, i64 4
  %51 = load i32, ptr %50, align 4, !tbaa !37
  tail call void @Ifd_ManOperSuper_rec(ptr noundef nonnull %0, i32 noundef %51, i32 noundef %2, ptr noundef %3)
  %52 = getelementptr inbounds nuw i8, ptr %49, i64 8
  %53 = load i32, ptr %52, align 4, !tbaa !37
  %54 = and i32 %53, 1
  %.not = icmp eq i32 %54, 0
  br i1 %.not, label %.lr.ph, label %._crit_edge
}